target datalayout = "e-m:e-p270:32:32-p271:32:32-p272:64:64-i64:64-i128:128-f80:128-n8:16:32:64-S128"
target triple = "x86_64-unknown-linux-gnu"

%"class.std::__shared_count" = type { ptr }
%"class.std::packaged_task" = type { %"class.std::shared_ptr.381" }
%"class.std::shared_ptr.381" = type { %"class.std::__shared_ptr.382" }
%"class.std::__shared_ptr.382" = type { ptr, %"class.std::__shared_count" }
%"struct.tf::MoC" = type { %"class.std::packaged_task" }
%class.anon.384 = type { %"struct.tf::MoC" }

; Function Attrs: mustprogress nounwind uwtable
define linkonce_odr dso_local noundef ptr @_ZNKSt12__shared_ptrINSt13__future_base16_Task_state_baseIFivEEELN9__gnu_cxx12_Lock_policyE2EE3getEv(ptr noundef nonnull align 8 dereferenceable(16) %this) #5 comdat align 2 {
entry:
  %this.addr = alloca ptr, align 8
  store ptr %this, ptr %this.addr, align 8
  %this1 = load ptr, ptr %this.addr, align 8
  %_M_ptr = getelementptr inbounds %"class.std::__shared_ptr.382", ptr %this1, i32 0, i32 0
  %0 = load ptr, ptr %_M_ptr, align 8
  ret ptr %0
}

; Function Attrs: mustprogress nounwind uwtable
define linkonce_odr dso_local noundef ptr @_ZNKSt19__shared_ptr_accessINSt13__future_base16_Task_state_baseIFivEEELN9__gnu_cxx12_Lock_policyE2ELb0ELb0EE6_M_getEv(ptr noundef nonnull align 1 dereferenceable(1) %this) #5 comdat align 2 {
entry:
  %this.addr = alloca ptr, align 8
  store ptr %this, ptr %this.addr, align 8
  %this1 = load ptr, ptr %this.addr, align 8
  %call = call noundef ptr @_ZNKSt12__shared_ptrINSt13__future_base16_Task_state_baseIFivEEELN9__gnu_cxx12_Lock_policyE2EE3getEv(ptr noundef nonnull align 8 dereferenceable(16) %this1) #3
  ret ptr %call
}

; Function Attrs: mustprogress nounwind uwtable
define linkonce_odr dso_local noundef zeroext i1 @_ZNKSt12__shared_ptrINSt13__future_base16_Task_state_baseIFivEEELN9__gnu_cxx12_Lock_policyE2EEcvbEv(ptr noundef nonnull align 8 dereferenceable(16) %this) #5 comdat align 2 {
entry:
  %this.addr = alloca ptr, align 8
  store ptr %this, ptr %this.addr, align 8
  %this1 = load ptr, ptr %this.addr, align 8
  %_M_ptr = getelementptr inbounds %"class.std::__shared_ptr.382", ptr %this1, i32 0, i32 0
  %0 = load ptr, ptr %_M_ptr, align 8
  %cmp = icmp ne ptr %0, null
  ret i1 %cmp
}

; Function Attrs: mustprogress nounwind uwtable
define linkonce_odr dso_local noundef ptr @_ZNKSt19__shared_ptr_accessINSt13__future_base16_Task_state_baseIFivEEELN9__gnu_cxx12_Lock_policyE2ELb0ELb0EEptEv(ptr noundef nonnull align 1 dereferenceable(1) %this) #5 comdat align 2 {
entry:
  %this.addr = alloca ptr, align 8
  store ptr %this, ptr %this.addr, align 8
  %this1 = load ptr, ptr %this.addr, align 8
  %call = call noundef ptr @_ZNKSt19__shared_ptr_accessINSt13__future_base16_Task_state_baseIFivEEELN9__gnu_cxx12_Lock_policyE2ELb0ELb0EE6_M_getEv(ptr noundef nonnull align 1 dereferenceable(1) %this1) #3
  ret ptr %call
}

; Function Attrs: mustprogress uwtable
define linkonce_odr dso_local void @_ZNSt13__future_base13_State_baseV28_S_checkINS_16_Task_state_baseIFivEEEEEvRKSt10shared_ptrIT_E(ptr noundef nonnull align 8 dereferenceable(16) %__p) #4 comdat align 2 {
entry:
  %__p.addr = alloca ptr, align 8
  store ptr %__p, ptr %__p.addr, align 8
  %0 = load ptr, ptr %__p.addr, align 8
  %call = call noundef zeroext i1 @_ZNKSt12__shared_ptrINSt13__future_base16_Task_state_baseIFivEEELN9__gnu_cxx12_Lock_policyE2EEcvbEv(ptr noundef nonnull align 8 dereferenceable(16) %0) #3
  br i1 %call, label %if.end, label %if.then

if.then:                                          ; preds = %entry
  call void @_ZSt20__throw_future_errori(i32 noundef 3) #23
  unreachable

if.end:                                           ; preds = %entry
  ret void
}

; Function Attrs: mustprogress uwtable
define linkonce_odr dso_local void @_ZNSt13packaged_taskIFivEEclEv(ptr noundef nonnull align 8 dereferenceable(16) %this) #4 comdat align 2 {
entry:
  %this.addr = alloca ptr, align 8
  store ptr %this, ptr %this.addr, align 8
  %this1 = load ptr, ptr %this.addr, align 8
  %_M_state = getelementptr inbounds %"class.std::packaged_task", ptr %this1, i32 0, i32 0
  call void @_ZNSt13__future_base13_State_baseV28_S_checkINS_16_Task_state_baseIFivEEEEEvRKSt10shared_ptrIT_E(ptr noundef nonnull align 8 dereferenceable(16) %_M_state)
  %_M_state2 = getelementptr inbounds %"class.std::packaged_task", ptr %this1, i32 0, i32 0
  %call = call noundef ptr @_ZNKSt19__shared_ptr_accessINSt13__future_base16_Task_state_baseIFivEEELN9__gnu_cxx12_Lock_policyE2ELb0ELb0EEptEv(ptr noundef nonnull align 1 dereferenceable(1) %_M_state2) #3
  %vtable = load ptr, ptr %call, align 8
  %vfn = getelementptr inbounds ptr, ptr %vtable, i64 4
  %0 = load ptr, ptr %vfn, align 8
  call void %0(ptr noundef nonnull align 8 dereferenceable(40) %call)
  ret void
}

; Function Attrs: mustprogress uwtable
define internal void @"_ZZN2tf8Executor5asyncIZ4mainE3$_0EEDaRKNSt7__cxx1112basic_stringIcSt11char_traitsIcESaIcEEEOT_ENUlvE_clEv"(ptr noundef nonnull align 8 dereferenceable(16) %this) #4 align 2 {
entry:
  %this.addr = alloca ptr, align 8
  store ptr %this, ptr %this.addr, align 8
  %this1 = load ptr, ptr %this.addr, align 8
  %0 = getelementptr inbounds %class.anon.384, ptr %this1, i32 0, i32 0
  %object = getelementptr inbounds %"struct.tf::MoC", ptr %0, i32 0, i32 0
  call void @_ZNSt13packaged_taskIFivEEclEv(ptr noundef nonnull align 8 dereferenceable(16) %object)
  ret void
}

; Function Attrs: mustprogress nounwind uwtable
define linkonce_odr dso_local noundef ptr @_ZNKSt9_Any_data9_M_accessEv(ptr noundef nonnull align 8 dereferenceable(16) %this) #5 comdat align 2 {
entry:
  %this.addr = alloca ptr, align 8
  store ptr %this, ptr %this.addr, align 8
  %this1 = load ptr, ptr %this.addr, align 8
  %arrayidx = getelementptr inbounds [16 x i8], ptr %this1, i64 0, i64 0
  ret ptr %arrayidx
}

; Function Attrs: mustprogress uwtable
define internal void @"_ZSt13__invoke_implIvRZN2tf8Executor5asyncIZ4mainE3$_0EEDaRKNSt7__cxx1112basic_stringIcSt11char_traitsIcESaIcEEEOT_EUlvE_JEESC_St14__invoke_otherOT0_DpOT1_"(ptr noundef nonnull align 8 dereferenceable(16) %__f) #4 {
entry:
  %__f.addr = alloca ptr, align 8
  store ptr %__f, ptr %__f.addr, align 8
  %0 = load ptr, ptr %__f.addr, align 8
  call void @"_ZZN2tf8Executor5asyncIZ4mainE3$_0EEDaRKNSt7__cxx1112basic_stringIcSt11char_traitsIcESaIcEEEOT_ENUlvE_clEv"(ptr noundef nonnull align 8 dereferenceable(16) %0)
  ret void
}

; Function Attrs: mustprogress nounwind uwtable
define internal noundef nonnull align 8 dereferenceable(8) ptr @"_ZNKSt9_Any_data9_M_accessIPZN2tf8Executor5asyncIZ4mainE3$_0EEDaRKNSt7__cxx1112basic_stringIcSt11char_traitsIcESaIcEEEOT_EUlvE_EERKSD_v"(ptr noundef nonnull align 8 dereferenceable(16) %this) #5 align 2 {
entry:
  %this.addr = alloca ptr, align 8
  store ptr %this, ptr %this.addr, align 8
  %this1 = load ptr, ptr %this.addr, align 8
  %call = call noundef ptr @_ZNKSt9_Any_data9_M_accessEv(ptr noundef nonnull align 8 dereferenceable(16) %this1) #3
  ret ptr %call
}

; Function Attrs: mustprogress uwtable
define internal void @"_ZSt10__invoke_rIvRZN2tf8Executor5asyncIZ4mainE3$_0EEDaRKNSt7__cxx1112basic_stringIcSt11char_traitsIcESaIcEEEOT_EUlvE_JEENSt9enable_ifIX16is_invocable_r_vISC_T0_DpT1_EESC_E4typeEOSH_DpOSI_"(ptr noundef nonnull align 8 dereferenceable(16) %__fn) #4 {
entry:
  %__fn.addr = alloca ptr, align 8
  store ptr %__fn, ptr %__fn.addr, align 8
  %0 = load ptr, ptr %__fn.addr, align 8
  call void @"_ZSt13__invoke_implIvRZN2tf8Executor5asyncIZ4mainE3$_0EEDaRKNSt7__cxx1112basic_stringIcSt11char_traitsIcESaIcEEEOT_EUlvE_JEESC_St14__invoke_otherOT0_DpOT1_"(ptr noundef nonnull align 8 dereferenceable(16) %0)
  ret void
}

; Function Attrs: mustprogress nounwind uwtable
define internal noundef ptr @"_ZNSt14_Function_base13_Base_managerIZN2tf8Executor5asyncIZ4mainE3$_0EEDaRKNSt7__cxx1112basic_stringIcSt11char_traitsIcESaIcEEEOT_EUlvE_E14_M_get_pointerERKSt9_Any_data"(ptr noundef nonnull align 8 dereferenceable(16) %__source) #5 align 2 {
entry:
  %__source.addr = alloca ptr, align 8
  store ptr %__source, ptr %__source.addr, align 8
  %0 = load ptr, ptr %__source.addr, align 8
  %call = call noundef nonnull align 8 dereferenceable(8) ptr @"_ZNKSt9_Any_data9_M_accessIPZN2tf8Executor5asyncIZ4mainE3$_0EEDaRKNSt7__cxx1112basic_stringIcSt11char_traitsIcESaIcEEEOT_EUlvE_EERKSD_v"(ptr noundef nonnull align 8 dereferenceable(16) %0) #3
  %1 = load ptr, ptr %call, align 8
  ret ptr %1
}

; Function Attrs: mustprogress uwtable
define internal void @"_ZNSt17_Function_handlerIFvvEZN2tf8Executor5asyncIZ4mainE3$_0EEDaRKNSt7__cxx1112basic_stringIcSt11char_traitsIcESaIcEEEOT_EUlvE_E9_M_invokeERKSt9_Any_data"(ptr noundef nonnull align 8 dereferenceable(16) %__functor) #4 align 2 {
entry:
  %__functor.addr = alloca ptr, align 8
  store ptr %__functor, ptr %__functor.addr, align 8
  %0 = load ptr, ptr %__functor.addr, align 8
  %call = call noundef ptr @"_ZNSt14_Function_base13_Base_managerIZN2tf8Executor5asyncIZ4mainE3$_0EEDaRKNSt7__cxx1112basic_stringIcSt11char_traitsIcESaIcEEEOT_EUlvE_E14_M_get_pointerERKSt9_Any_data"(ptr noundef nonnull align 8 dereferenceable(16) %0) #3
  call void @"_ZSt10__invoke_rIvRZN2tf8Executor5asyncIZ4mainE3$_0EEDaRKNSt7__cxx1112basic_stringIcSt11char_traitsIcESaIcEEEOT_EUlvE_JEENSt9enable_ifIX16is_invocable_r_vISC_T0_DpT1_EESC_E4typeEOSH_DpOSI_"(ptr noundef nonnull align 8 dereferenceable(16) %call)
  ret void
}